; Function Attrs: mustprogress uwtable
define internal void @_ZL11BM_logspeedi(i32 noundef %0) #3 personality ptr @__gxx_personality_v0 {
  %2 = alloca %"class.google::LogMessage", align 8
  %3 = icmp sgt i32 %0, 0
  br i1 %3, label %.lr.ph, label %._crit_edge

.lr.ph:                                           ; preds = %1, %8
  %.in = phi i32 [ %4, %8 ], [ %0, %1 ]
  %4 = add nsw i32 %.in, -1
  call void @_ZN6google10LogMessageC1EPKci(ptr noundef nonnull align 8 dereferenceable(96) %2, ptr noundef nonnull @.str.32, i32 noundef 177)
  %5 = invoke noundef nonnull align 8 dereferenceable(8) ptr @_ZN6google10LogMessage6streamEv(ptr noundef nonnull align 8 dereferenceable(96) %2)
          to label %6 unwind label %10

6:                                                ; preds = %.lr.ph
  %7 = invoke noundef nonnull align 8 dereferenceable(8) ptr @_ZStlsISt11char_traitsIcEERSt13basic_ostreamIcT_ES5_PKc(ptr noundef nonnull align 8 dereferenceable(8) %5, ptr noundef nonnull @.str.218)
          to label %8 unwind label %10

8:                                                ; preds = %6
  call void @_ZN6google10LogMessageD1Ev(ptr noundef nonnull align 8 dereferenceable(96) %2)
  %9 = icmp ugt i32 %.in, 1
  br i1 %9, label %.lr.ph, label %._crit_edge, !llvm.loop !31

10:                                               ; preds = %6, %.lr.ph
  %11 = landingpad { ptr, i32 }
          cleanup
  invoke void @_ZN6google10LogMessageD1Ev(ptr noundef nonnull align 8 dereferenceable(96) %2)
          to label %12 unwind label %13

._crit_edge:                                      ; preds = %8, %1
  ret void

12:                                               ; preds = %10
  resume { ptr, i32 } %11

13:                                               ; preds = %10
  %14 = landingpad { ptr, i32 }
          catch ptr null
  %15 = extractvalue { ptr, i32 } %14, 0
  call void @__clang_call_terminate(ptr %15) #37
  unreachable
}